Certificate:
    Data:
        Version: 3 (0x2)
        Serial Number: 1 (0x1)
        Signature Algorithm: sha256WithRSAEncryption
        Issuer: C=FR, ST=Radius, L=Somewhere, O=Example Inc./emailAddress=admin@example.org, CN=Example Certificate Authority
        Validity
            Not Before: May 12 07:30:08 2023 GMT
            Not After : Jul 11 07:30:08 2023 GMT
        Subject: C=FR, ST=Radius, O=Example Inc., CN=Example Server Certificate/emailAddress=admin@example.org
        Subject Public Key Info:
            Public Key Algorithm: rsaEncryption
                RSA Public-Key: (2048 bit)
                Modulus:
                    00:b4:3c:3f:3a:0e:fb:fd:69:cf:ba:fe:84:c7:40:
                    2a:34:38:46:4e:53:61:5c:54:8c:45:9e:94:bf:9e:
                    d2:b2:9c:97:e7:5f:98:81:f1:7d:82:86:97:65:fe:
                    43:d1:92:8d:22:80:35:b7:ad:47:1b:6d:a0:1b:28:
                    bc:09:35:7a:a9:be:57:77:c8:92:19:7d:23:a4:05:
                    ed:51:40:a9:8b:31:2f:0b:08:32:77:e9:17:9a:09:
                    70:38:ed:78:ee:30:04:6c:f0:06:c5:7e:8d:d0:b9:
                    3b:25:50:b8:fe:57:11:29:10:7f:23:e8:bc:21:a9:
                    e1:36:9c:9b:34:71:71:79:f5:58:2b:c9:3f:a5:2b:
                    3c:8a:e1:6e:bb:b3:32:7e:18:c5:fb:00:9d:26:f5:
                    b6:90:c7:06:fd:25:bd:e1:b0:26:cc:2b:9e:df:de:
                    c5:a8:72:3b:29:2d:34:52:df:ad:ae:e7:05:ac:9f:
                    04:f7:95:9d:c7:e2:81:ae:a5:66:c7:1d:a7:5b:3d:
                    0b:cb:37:27:9d:60:14:59:18:29:d3:11:30:47:5b:
                    e4:72:ac:02:bf:b0:be:6b:e3:74:31:37:7e:59:b0:
                    dd:05:27:20:12:a0:42:46:f6:f0:b6:41:86:7c:76:
                    ca:1c:58:da:dc:c4:a1:fb:07:f2:e0:e2:50:59:c7:
                    6f:df
                Exponent: 65537 (0x10001)
        X509v3 extensions:
            X509v3 Extended Key Usage: 
                TLS Web Server Authentication
            X509v3 CRL Distribution Points: 

                Full Name:
                  URI:http://www.example.com/example_ca.crl

    Signature Algorithm: sha256WithRSAEncryption
         61:42:1a:31:ff:58:0f:cf:f6:90:da:1a:a4:0f:1d:f4:f0:23:
         36:7a:30:5e:45:c4:b7:5b:d9:fd:59:1d:84:28:ec:24:de:07:
         78:e0:d0:cc:5e:0f:19:b0:33:b3:21:ef:2f:c8:3e:dd:d7:45:
         78:ca:c3:03:96:d3:67:1b:21:b0:d6:80:e9:53:a0:6f:f6:ea:
         67:ce:5e:58:73:7b:84:d5:e9:ba:75:bf:15:5a:46:43:a9:01:
         42:d2:4b:0e:07:c1:f6:30:76:03:2c:4d:76:75:46:ef:2a:bb:
         52:e6:33:32:3d:a0:21:13:a5:01:1c:0c:30:a9:b5:4b:f7:14:
         7e:b9:b6:e7:b2:3c:fa:8d:a6:1d:45:1b:57:e4:d2:04:ba:d5:
         cc:ea:c6:19:f2:f8:60:39:10:c5:18:aa:37:2d:b2:1c:91:0c:
         94:c2:62:03:81:d0:74:89:1a:00:7d:5b:7a:c4:46:30:5a:29:
         96:c0:50:1c:01:f3:50:e2:e8:d1:fe:10:78:40:e2:a4:1a:1a:
         f3:16:74:a2:63:01:4f:20:d2:cc:3d:e0:88:ca:dc:e9:e0:8d:
         ce:9a:7c:e3:50:f6:06:22:5c:a1:77:a3:97:7f:94:6a:cc:62:
         2f:c1:88:3e:eb:64:d0:c5:a8:7e:8e:6f:72:9d:85:7e:47:c1:
         d8:79:cd:72
-----BEGIN CERTIFICATE-----
MIID2jCCAsKgAwIBAgIBATANBgkqhkiG9w0BAQsFADCBkzELMAkGA1UEBhMCRlIx
DzANBgNVBAgMBlJhZGl1czESMBAGA1UEBwwJU29tZXdoZXJlMRUwEwYDVQQKDAxF
eGFtcGxlIEluYy4xIDAeBgkqhkiG9w0BCQEWEWFkbWluQGV4YW1wbGUub3JnMSYw
JAYDVQQDDB1FeGFtcGxlIENlcnRpZmljYXRlIEF1dGhvcml0eTAeFw0yMzA1MTIw
NzMwMDhaFw0yMzA3MTEwNzMwMDhaMHwxCzAJBgNVBAYTAkZSMQ8wDQYDVQQIDAZS
YWRpdXMxFTATBgNVBAoMDEV4YW1wbGUgSW5jLjEjMCEGA1UEAwwaRXhhbXBsZSBT
ZXJ2ZXIgQ2VydGlmaWNhdGUxIDAeBgkqhkiG9w0BCQEWEWFkbWluQGV4YW1wbGUu
b3JnMIIBIjANBgkqhkiG9w0BAQEFAAOCAQ8AMIIBCgKCAQEAtDw/Og77/WnPuv6E
x0AqNDhGTlNhXFSMRZ6Uv57SspyX51+YgfF9goaXZf5D0ZKNIoA1t61HG22gGyi8
CTV6qb5Xd8iSGX0jpAXtUUCpizEvCwgyd+kXmglwOO147jAEbPAGxX6N0Lk7JVC4
/lcRKRB/I+i8IanhNpybNHFxefVYK8k/pSs8iuFuu7MyfhjF+wCdJvW2kMcG/SW9
4bAmzCue397FqHI7KS00Ut+trucFrJ8E95Wdx+KBrqVmxx2nWz0LyzcnnWAUWRgp
0xEwR1vkcqwCv7C+a+N0MTd+WbDdBScgEqBCRvbwtkGGfHbKHFja3MSh+wfy4OJQ
Wcdv3wIDAQABo08wTTATBgNVHSUEDDAKBggrBgEFBQcDATA2BgNVHR8ELzAtMCug
KaAnhiVodHRwOi8vd3d3LmV4YW1wbGUuY29tL2V4YW1wbGVfY2EuY3JsMA0GCSqG
SIb3DQEBCwUAA4IBAQBhQhox/1gPz/aQ2hqkDx308CM2ejBeRcS3W9n9WR2EKOwk
3gd44NDMXg8ZsDOzIe8vyD7d10V4ysMDltNnGyGw1oDpU6Bv9upnzl5Yc3uE1em6
db8VWkZDqQFC0ksOB8H2MHYDLE12dUbvKrtS5jMyPaAhE6UBHAwwqbVL9xR+ubbn
sjz6jaYdRRtX5NIEutXM6sYZ8vhgORDFGKo3LbIckQyUwmIDgdB0iRoAfVt6xEYw
WimWwFAcAfNQ4ujR/hB4QOKkGhrzFnSiYwFPINLMPeCIytzp4I3OmnzjUPYGIlyh
d6OXf5RqzGIvwYg+62TQxah+jm9ynYV+R8HYec1y
-----END CERTIFICATE-----
